target datalayout = "e-m:e-p270:32:32-p271:32:32-p272:64:64-i64:64-i128:128-f80:128-n8:16:32:64-S128"
target triple = "x86_64-pc-linux-gnu"

%"class.llvm::StringRef" = type { ptr, i64 }
%"class.llvm::DWARFContext" = type <{ %"class.llvm::DIContext.base", [4 x i8], %"class.std::unique_ptr", i32, [4 x i8], %"class.std::function", %"class.std::function", %"class.std::unique_ptr.2", i8, [7 x i8] }>
%"class.llvm::DIContext.base" = type <{ ptr, i32 }>
%"class.std::unique_ptr" = type { %"struct.std::__uniq_ptr_data" }
%"struct.std::__uniq_ptr_data" = type { %"class.std::__uniq_ptr_impl" }
%"class.std::__uniq_ptr_impl" = type { %"class.std::tuple" }
%"class.std::tuple" = type { %"struct.std::_Tuple_impl" }
%"struct.std::_Tuple_impl" = type { %"struct.std::_Head_base.1" }
%"struct.std::_Head_base.1" = type { ptr }
%"class.std::function" = type { %"class.std::_Function_base", ptr }
%"class.std::_Function_base" = type { %"union.std::_Any_data", ptr }
%"union.std::_Any_data" = type { %"union.std::_Nocopy_types" }
%"union.std::_Nocopy_types" = type { { i64, i64 } }
%"class.std::unique_ptr.2" = type { %"struct.std::__uniq_ptr_data.3" }
%"struct.std::__uniq_ptr_data.3" = type { %"class.std::__uniq_ptr_impl.4" }
%"class.std::__uniq_ptr_impl.4" = type { %"class.std::tuple.5" }
%"class.std::tuple.5" = type { %"struct.std::_Tuple_impl.6" }
%"struct.std::_Tuple_impl.6" = type { %"struct.std::_Head_base.9" }
%"struct.std::_Head_base.9" = type { ptr }
%"class.std::unique_ptr.50" = type { %"struct.std::__uniq_ptr_data.51" }
%"struct.std::__uniq_ptr_data.51" = type { %"class.std::__uniq_ptr_impl.52" }
%"class.std::__uniq_ptr_impl.52" = type { %"class.std::tuple.53" }
%"class.std::tuple.53" = type { %"struct.std::_Tuple_impl.54" }
%"struct.std::_Tuple_impl.54" = type { %"struct.std::_Head_base.57" }
%"struct.std::_Head_base.57" = type { ptr }
%"class.llvm::DWARFContext::DWARFContextState" = type { ptr, ptr }
%"class.std::__cxx11::basic_string" = type { %"struct.std::__cxx11::basic_string<char>::_Alloc_hider", i64, %union.anon }
%"struct.std::__cxx11::basic_string<char>::_Alloc_hider" = type { ptr }
%union.anon = type { i64, [8 x i8] }
%"class.llvm::SmallVectorBase" = type { ptr, i32, i32 }
%"class.llvm::DWARFUnitVector" = type <{ %"class.llvm::SmallVector.178", %"class.std::function.183", i32, [4 x i8] }>
%"class.llvm::SmallVector.178" = type { %"class.llvm::SmallVectorImpl.179", %"struct.llvm::SmallVectorStorage.182" }
%"class.llvm::SmallVectorImpl.179" = type { %"class.llvm::SmallVectorTemplateBase.180" }
%"class.llvm::SmallVectorTemplateBase.180" = type { %"class.llvm::SmallVectorTemplateCommon.181" }
%"class.llvm::SmallVectorTemplateCommon.181" = type { %"class.llvm::SmallVectorBase" }
%"struct.llvm::SmallVectorStorage.182" = type { [8 x i8] }
%"class.std::function.183" = type { %"class.std::_Function_base", ptr }
%"class.(anonymous namespace)::ThreadUnsafeDWARFContextState" = type { %"class.llvm::DWARFContext::DWARFContextState", %"class.llvm::DWARFUnitVector", %"class.std::optional.591", %"class.std::unique_ptr.601", %"class.std::unique_ptr.609", %"class.std::unique_ptr.601", %"class.std::unique_ptr.617", %"class.std::unique_ptr.625", %"class.std::unique_ptr.633", %"class.std::unique_ptr.641", %"class.std::unique_ptr.649", %"class.std::unique_ptr.649", %"class.std::unique_ptr.50", %"class.std::unique_ptr.50", %"class.std::unique_ptr.657", %"class.std::unique_ptr.665", %"class.std::unique_ptr.665", %"class.std::unique_ptr.665", %"class.std::unique_ptr.665", %"class.llvm::DWARFUnitVector", %"class.std::optional.591", %"class.std::unique_ptr.617", %"class.std::unique_ptr.50", %"class.std::unique_ptr.50", %"class.llvm::StringMap.673", %"class.std::weak_ptr", i8, %"class.std::__cxx11::basic_string" }
%"class.std::unique_ptr.609" = type { %"struct.std::__uniq_ptr_data.610" }
%"struct.std::__uniq_ptr_data.610" = type { %"class.std::__uniq_ptr_impl.611" }
%"class.std::__uniq_ptr_impl.611" = type { %"class.std::tuple.612" }
%"class.std::tuple.612" = type { %"struct.std::_Tuple_impl.613" }
%"struct.std::_Tuple_impl.613" = type { %"struct.std::_Head_base.616" }
%"struct.std::_Head_base.616" = type { ptr }
%"class.std::unique_ptr.601" = type { %"struct.std::__uniq_ptr_data.602" }
%"struct.std::__uniq_ptr_data.602" = type { %"class.std::__uniq_ptr_impl.603" }
%"class.std::__uniq_ptr_impl.603" = type { %"class.std::tuple.604" }
%"class.std::tuple.604" = type { %"struct.std::_Tuple_impl.605" }
%"struct.std::_Tuple_impl.605" = type { %"struct.std::_Head_base.608" }
%"struct.std::_Head_base.608" = type { ptr }
%"class.std::unique_ptr.625" = type { %"struct.std::__uniq_ptr_data.626" }
%"struct.std::__uniq_ptr_data.626" = type { %"class.std::__uniq_ptr_impl.627" }
%"class.std::__uniq_ptr_impl.627" = type { %"class.std::tuple.628" }
%"class.std::tuple.628" = type { %"struct.std::_Tuple_impl.629" }
%"struct.std::_Tuple_impl.629" = type { %"struct.std::_Head_base.632" }
%"struct.std::_Head_base.632" = type { ptr }
%"class.std::unique_ptr.633" = type { %"struct.std::__uniq_ptr_data.634" }
%"struct.std::__uniq_ptr_data.634" = type { %"class.std::__uniq_ptr_impl.635" }
%"class.std::__uniq_ptr_impl.635" = type { %"class.std::tuple.636" }
%"class.std::tuple.636" = type { %"struct.std::_Tuple_impl.637" }
%"struct.std::_Tuple_impl.637" = type { %"struct.std::_Head_base.640" }
%"struct.std::_Head_base.640" = type { ptr }
%"class.std::unique_ptr.641" = type { %"struct.std::__uniq_ptr_data.642" }
%"struct.std::__uniq_ptr_data.642" = type { %"class.std::__uniq_ptr_impl.643" }
%"class.std::__uniq_ptr_impl.643" = type { %"class.std::tuple.644" }
%"class.std::tuple.644" = type { %"struct.std::_Tuple_impl.645" }
%"struct.std::_Tuple_impl.645" = type { %"struct.std::_Head_base.648" }
%"struct.std::_Head_base.648" = type { ptr }
%"class.std::unique_ptr.649" = type { %"struct.std::__uniq_ptr_data.650" }
%"struct.std::__uniq_ptr_data.650" = type { %"class.std::__uniq_ptr_impl.651" }
%"class.std::__uniq_ptr_impl.651" = type { %"class.std::tuple.652" }
%"class.std::tuple.652" = type { %"struct.std::_Tuple_impl.653" }
%"struct.std::_Tuple_impl.653" = type { %"struct.std::_Head_base.656" }
%"struct.std::_Head_base.656" = type { ptr }
%"class.std::unique_ptr.657" = type { %"struct.std::__uniq_ptr_data.658" }
%"struct.std::__uniq_ptr_data.658" = type { %"class.std::__uniq_ptr_impl.659" }
%"class.std::__uniq_ptr_impl.659" = type { %"class.std::tuple.660" }
%"class.std::tuple.660" = type { %"struct.std::_Tuple_impl.661" }
%"struct.std::_Tuple_impl.661" = type { %"struct.std::_Head_base.664" }
%"struct.std::_Head_base.664" = type { ptr }
%"class.std::unique_ptr.665" = type { %"struct.std::__uniq_ptr_data.666" }
%"struct.std::__uniq_ptr_data.666" = type { %"class.std::__uniq_ptr_impl.667" }
%"class.std::__uniq_ptr_impl.667" = type { %"class.std::tuple.668" }
%"class.std::tuple.668" = type { %"struct.std::_Tuple_impl.669" }
%"struct.std::_Tuple_impl.669" = type { %"struct.std::_Head_base.672" }
%"struct.std::_Head_base.672" = type { ptr }
%"class.std::optional.591" = type { %"struct.std::_Optional_base.592" }
%"struct.std::_Optional_base.592" = type { %"struct.std::_Optional_payload.594" }
%"struct.std::_Optional_payload.594" = type { %"struct.std::_Optional_payload.base.598", [7 x i8] }
%"struct.std::_Optional_payload.base.598" = type { %"struct.std::_Optional_payload_base.base.597" }
%"struct.std::_Optional_payload_base.base.597" = type { %"union.std::_Optional_payload_base<llvm::DenseMap<unsigned long, llvm::DWARFTypeUnit *>>::_Storage", i8 }
%"union.std::_Optional_payload_base<llvm::DenseMap<unsigned long, llvm::DWARFTypeUnit *>>::_Storage" = type { %"class.llvm::DenseMap.185" }
%"class.llvm::DenseMap.185" = type <{ ptr, i32, i32, i32, [4 x i8] }>
%"class.std::unique_ptr.617" = type { %"struct.std::__uniq_ptr_data.618" }
%"struct.std::__uniq_ptr_data.618" = type { %"class.std::__uniq_ptr_impl.619" }
%"class.std::__uniq_ptr_impl.619" = type { %"class.std::tuple.620" }
%"class.std::tuple.620" = type { %"struct.std::_Tuple_impl.621" }
%"struct.std::_Tuple_impl.621" = type { %"struct.std::_Head_base.624" }
%"struct.std::_Head_base.624" = type { ptr }
%"class.llvm::StringMap.673" = type { %"class.llvm::StringMapImpl" }
%"class.llvm::StringMapImpl" = type { ptr, i32, i32, i32, i32 }
%"class.std::weak_ptr" = type { %"class.std::__weak_ptr" }
%"class.std::__weak_ptr" = type { ptr, %"class.std::__weak_count" }
%"class.std::__weak_count" = type { ptr }

; Function Attrs: mustprogress nounwind uwtable
define linkonce_odr hidden noundef nonnull align 8 dereferenceable(8) ptr @_ZNSt10_Head_baseILm0EPKN4llvm11DWARFObjectELb0EE7_M_headERKS4_(ptr noundef nonnull align 8 dereferenceable(8) %0) #0 comdat align 2 {
  %2 = alloca ptr, align 8
  store ptr %0, ptr %2, align 8
  %3 = load ptr, ptr %2, align 8
  %4 = getelementptr inbounds nuw %"struct.std::_Head_base.9", ptr %3, i32 0, i32 0
  ret ptr %4
}

; Function Attrs: mustprogress nounwind uwtable
define linkonce_odr hidden noundef nonnull align 8 dereferenceable(8) ptr @_ZNSt11_Tuple_implILm0EJPKN4llvm11DWARFObjectESt14default_deleteIS2_EEE7_M_headERKS6_(ptr noundef nonnull align 8 dereferenceable(8) %0) #0 comdat align 2 {
  %2 = alloca ptr, align 8
  store ptr %0, ptr %2, align 8
  %3 = load ptr, ptr %2, align 8
  %4 = call noundef nonnull align 8 dereferenceable(8) ptr @_ZNSt10_Head_baseILm0EPKN4llvm11DWARFObjectELb0EE7_M_headERKS4_(ptr noundef nonnull align 8 dereferenceable(8) %3) #13
  ret ptr %4
}

; Function Attrs: mustprogress nounwind uwtable
define linkonce_odr noundef nonnull align 8 dereferenceable(8) ptr @_ZSt12__get_helperILm0EPKN4llvm11DWARFObjectEJSt14default_deleteIS2_EEERKT0_RKSt11_Tuple_implIXT_EJS6_DpT1_EE(ptr noundef nonnull align 8 dereferenceable(8) %0) #0 comdat {
  %2 = alloca ptr, align 8
  store ptr %0, ptr %2, align 8
  %3 = load ptr, ptr %2, align 8
  %4 = call noundef nonnull align 8 dereferenceable(8) ptr @_ZNSt11_Tuple_implILm0EJPKN4llvm11DWARFObjectESt14default_deleteIS2_EEE7_M_headERKS6_(ptr noundef nonnull align 8 dereferenceable(8) %3) #13
  ret ptr %4
}

; Function Attrs: mustprogress nounwind uwtable
define linkonce_odr noundef nonnull align 8 dereferenceable(8) ptr @_ZSt3getILm0EJPKN4llvm11DWARFObjectESt14default_deleteIS2_EEERKNSt13tuple_elementIXT_ESt5tupleIJDpT0_EEE4typeERKSA_(ptr noundef nonnull align 8 dereferenceable(8) %0) #0 comdat {
  %2 = alloca ptr, align 8
  store ptr %0, ptr %2, align 8
  %3 = load ptr, ptr %2, align 8
  %4 = call noundef nonnull align 8 dereferenceable(8) ptr @_ZSt12__get_helperILm0EPKN4llvm11DWARFObjectEJSt14default_deleteIS2_EEERKT0_RKSt11_Tuple_implIXT_EJS6_DpT1_EE(ptr noundef nonnull align 8 dereferenceable(8) %3) #13
  ret ptr %4
}

; Function Attrs: mustprogress nounwind uwtable
define linkonce_odr hidden noundef ptr @_ZNKSt15__uniq_ptr_implIKN4llvm11DWARFObjectESt14default_deleteIS2_EE6_M_ptrEv(ptr noundef nonnull align 8 dereferenceable(8) %0) #0 comdat align 2 {
  %2 = alloca ptr, align 8
  store ptr %0, ptr %2, align 8
  %3 = load ptr, ptr %2, align 8
  %4 = getelementptr inbounds nuw %"class.std::__uniq_ptr_impl.4", ptr %3, i32 0, i32 0
  %5 = call noundef nonnull align 8 dereferenceable(8) ptr @_ZSt3getILm0EJPKN4llvm11DWARFObjectESt14default_deleteIS2_EEERKNSt13tuple_elementIXT_ESt5tupleIJDpT0_EEE4typeERKSA_(ptr noundef nonnull align 8 dereferenceable(8) %4) #13
  %6 = load ptr, ptr %5, align 8
  ret ptr %6
}

; Function Attrs: mustprogress nounwind uwtable
define linkonce_odr hidden noundef ptr @_ZNKSt10unique_ptrIKN4llvm11DWARFObjectESt14default_deleteIS2_EE3getEv(ptr noundef nonnull align 8 dereferenceable(8) %0) #0 comdat align 2 {
  %2 = alloca ptr, align 8
  store ptr %0, ptr %2, align 8
  %3 = load ptr, ptr %2, align 8
  %4 = getelementptr inbounds nuw %"class.std::unique_ptr.2", ptr %3, i32 0, i32 0
  %5 = call noundef ptr @_ZNKSt15__uniq_ptr_implIKN4llvm11DWARFObjectESt14default_deleteIS2_EE6_M_ptrEv(ptr noundef nonnull align 8 dereferenceable(8) %4) #13
  ret ptr %5
}

; Function Attrs: mustprogress nounwind uwtable
define linkonce_odr hidden noundef ptr @_ZNKSt10unique_ptrIKN4llvm11DWARFObjectESt14default_deleteIS2_EEptEv(ptr noundef nonnull align 8 dereferenceable(8) %0) #0 comdat align 2 {
  %2 = alloca ptr, align 8
  store ptr %0, ptr %2, align 8
  %3 = load ptr, ptr %2, align 8
  %4 = call noundef ptr @_ZNKSt10unique_ptrIKN4llvm11DWARFObjectESt14default_deleteIS2_EE3getEv(ptr noundef nonnull align 8 dereferenceable(8) %3) #13
  ret ptr %4
}

; Function Attrs: mustprogress nounwind uwtable
define linkonce_odr hidden noundef nonnull align 8 dereferenceable(32) ptr @_ZNKSt10unique_ptrIKN4llvm11DWARFObjectESt14default_deleteIS2_EEdeEv(ptr noundef nonnull align 8 dereferenceable(8) %0) #0 comdat align 2 {
  %2 = alloca ptr, align 8
  store ptr %0, ptr %2, align 8
  %3 = load ptr, ptr %2, align 8
  br label %4

4:                                                ; preds = %1
  br label %5

5:                                                ; preds = %4
  %6 = call noundef ptr @_ZNKSt10unique_ptrIKN4llvm11DWARFObjectESt14default_deleteIS2_EE3getEv(ptr noundef nonnull align 8 dereferenceable(8) %3) #13
  ret ptr %6
}

; Function Attrs: mustprogress nounwind uwtable
define linkonce_odr hidden noundef zeroext i1 @_ZNK4llvm12DWARFContext14isLittleEndianEv(ptr noundef nonnull align 8 dereferenceable(105) %0) #0 comdat align 2 {
  %2 = alloca ptr, align 8
  store ptr %0, ptr %2, align 8
  %3 = load ptr, ptr %2, align 8
  %4 = getelementptr inbounds nuw %"class.llvm::DWARFContext", ptr %3, i32 0, i32 7
  %5 = call noundef ptr @_ZNKSt10unique_ptrIKN4llvm11DWARFObjectESt14default_deleteIS2_EEptEv(ptr noundef nonnull align 8 dereferenceable(8) %4) #13
  %6 = load ptr, ptr %5, align 8
  %7 = getelementptr inbounds ptr, ptr %6, i64 5
  %8 = load ptr, ptr %7, align 8
  %9 = call noundef zeroext i1 %8(ptr noundef nonnull align 8 dereferenceable(32) %5)
  ret i1 %9
}

; Function Attrs: mustprogress nounwind uwtable
define linkonce_odr hidden noundef nonnull align 8 dereferenceable(32) ptr @_ZNK4llvm12DWARFContext11getDWARFObjEv(ptr noundef nonnull align 8 dereferenceable(105) %0) #0 comdat align 2 {
  %2 = alloca ptr, align 8
  store ptr %0, ptr %2, align 8
  %3 = load ptr, ptr %2, align 8
  %4 = getelementptr inbounds nuw %"class.llvm::DWARFContext", ptr %3, i32 0, i32 7
  %5 = call noundef nonnull align 8 dereferenceable(32) ptr @_ZNKSt10unique_ptrIKN4llvm11DWARFObjectESt14default_deleteIS2_EEdeEv(ptr noundef nonnull align 8 dereferenceable(8) %4) #13
  ret ptr %5
}

; Function Attrs: mustprogress nounwind uwtable
define internal noundef nonnull align 8 dereferenceable(149) ptr @_ZN12_GLOBAL__N_129ThreadUnsafeDWARFContextState12getAppleObjCEv(ptr noundef nonnull align 8 dereferenceable(440) %0) unnamed_addr #0 align 2 {
  %2 = alloca ptr, align 8
  %3 = alloca ptr, align 8
  %4 = alloca %"class.llvm::StringRef", align 8
  store ptr %0, ptr %2, align 8
  %5 = load ptr, ptr %2, align 8
  %6 = getelementptr inbounds nuw %"class.llvm::DWARFContext::DWARFContextState", ptr %5, i32 0, i32 1
  %7 = load ptr, ptr %6, align 8
  %8 = call noundef nonnull align 8 dereferenceable(32) ptr @_ZNK4llvm12DWARFContext11getDWARFObjEv(ptr noundef nonnull align 8 dereferenceable(105) %7)
  store ptr %8, ptr %3, align 8
  %9 = getelementptr inbounds nuw %"class.(anonymous namespace)::ThreadUnsafeDWARFContextState", ptr %5, i32 0, i32 18
  %10 = load ptr, ptr %3, align 8
  %11 = load ptr, ptr %3, align 8
  %12 = load ptr, ptr %11, align 8
  %13 = getelementptr inbounds ptr, ptr %12, i64 44
  %14 = load ptr, ptr %13, align 8
  %15 = call noundef nonnull align 8 dereferenceable(24) ptr %14(ptr noundef nonnull align 8 dereferenceable(32) %11)
  %16 = load ptr, ptr %3, align 8
  %17 = load ptr, ptr %16, align 8
  %18 = getelementptr inbounds ptr, ptr %17, i64 17
  %19 = load ptr, ptr %18, align 8
  %20 = call { ptr, i64 } %19(ptr noundef nonnull align 8 dereferenceable(32) %16)
  %21 = getelementptr inbounds nuw { ptr, i64 }, ptr %4, i32 0, i32 0
  %22 = extractvalue { ptr, i64 } %20, 0
  store ptr %22, ptr %21, align 8
  %23 = getelementptr inbounds nuw { ptr, i64 }, ptr %4, i32 0, i32 1
  %24 = extractvalue { ptr, i64 } %20, 1
  store i64 %24, ptr %23, align 8
  %25 = getelementptr inbounds nuw %"class.llvm::DWARFContext::DWARFContextState", ptr %5, i32 0, i32 1
  %26 = load ptr, ptr %25, align 8
  %27 = call noundef zeroext i1 @_ZNK4llvm12DWARFContext14isLittleEndianEv(ptr noundef nonnull align 8 dereferenceable(105) %26)
  %28 = getelementptr inbounds nuw { ptr, i64 }, ptr %4, i32 0, i32 0
  %29 = load ptr, ptr %28, align 8
  %30 = getelementptr inbounds nuw { ptr, i64 }, ptr %4, i32 0, i32 1
  %31 = load i64, ptr %30, align 8
  %32 = call noundef nonnull align 8 dereferenceable(149) ptr @_ZL13getAccelTableIN4llvm21AppleAcceleratorTableEERT_RSt10unique_ptrIS2_St14default_deleteIS2_EERKNS0_11DWARFObjectERKNS0_12DWARFSectionENS0_9StringRefEb(ptr noundef nonnull align 8 dereferenceable(8) %9, ptr noundef nonnull align 8 dereferenceable(32) %10, ptr noundef nonnull align 8 dereferenceable(24) %15, ptr %29, i64 %31, i1 noundef zeroext %27)
  ret ptr %32
}