; Function Attrs: mustprogress nounwind uwtable
define internal noundef nonnull align 8 dereferenceable(149) ptr @_ZN12_GLOBAL__N_129ThreadUnsafeDWARFContextState12getAppleObjCEv(ptr nocapture noundef nonnull align 8 dereferenceable(440) %0) unnamed_addr #0 align 2 {
  %2 = getelementptr inbounds nuw i8, ptr %0, i64 8
  %3 = load ptr, ptr %2, align 8
  %4 = getelementptr inbounds nuw i8, ptr %3, i64 96
  %5 = load ptr, ptr %4, align 8
  %6 = getelementptr inbounds nuw i8, ptr %0, i64 232
  %7 = load ptr, ptr %5, align 8
  %8 = getelementptr inbounds i8, ptr %7, i64 352
  %9 = load ptr, ptr %8, align 8
  %10 = tail call noundef nonnull align 8 dereferenceable(24) ptr %9(ptr noundef nonnull align 8 dereferenceable(32) %5) #24
  %11 = load ptr, ptr %5, align 8
  %12 = getelementptr inbounds i8, ptr %11, i64 136
  %13 = load ptr, ptr %12, align 8
  %14 = tail call { ptr, i64 } %13(ptr noundef nonnull align 8 dereferenceable(32) %5) #24
  %15 = extractvalue { ptr, i64 } %14, 0
  %16 = extractvalue { ptr, i64 } %14, 1
  %17 = load ptr, ptr %2, align 8
  %18 = getelementptr inbounds nuw i8, ptr %17, i64 96
  %19 = load ptr, ptr %18, align 8
  %20 = load ptr, ptr %19, align 8
  %21 = getelementptr inbounds i8, ptr %20, i64 40
  %22 = load ptr, ptr %21, align 8
  %23 = tail call noundef zeroext i1 %22(ptr noundef nonnull align 8 dereferenceable(32) %19) #24
  %24 = tail call fastcc noundef nonnull align 8 dereferenceable(149) ptr @_ZL13getAccelTableIN4llvm21AppleAcceleratorTableEERT_RSt10unique_ptrIS2_St14default_deleteIS2_EERKNS0_11DWARFObjectERKNS0_12DWARFSectionENS0_9StringRefEb(ptr noundef nonnull align 8 dereferenceable(8) %6, ptr noundef nonnull align 8 dereferenceable(32) %5, ptr noundef nonnull align 8 dereferenceable(24) %10, ptr %15, i64 %16, i1 noundef zeroext %23)
  ret ptr %24
}